; Function Attrs: mustprogress uwtable
define dso_local void @_ZN4absl12log_internal10LogMessage20LogBacktraceIfNeededEv(ptr noundef nonnull readonly align 8 captures(none) dereferenceable(16) %0) local_unnamed_addr #0 align 2 personality ptr @__gxx_personality_v0 {
  %2 = alloca %"class.absl::log_internal::LogMessage::OstreamView", align 8
  %3 = tail call noundef zeroext i1 @_ZN4absl12log_internal13IsInitializedEv()
  br i1 %3, label %4, label %27

4:                                                ; preds = %1
  %5 = getelementptr inbounds nuw i8, ptr %0, i64 8
  %6 = load ptr, ptr %5, align 8, !tbaa !4
  %7 = getelementptr inbounds nuw i8, ptr %6, i64 16
  %.sroa.0.0.copyload.i = load i64, ptr %7, align 8, !tbaa !31
  %.sroa.2.0..sroa_idx.i = getelementptr inbounds nuw i8, ptr %6, i64 24
  %.sroa.2.0.copyload.i = load ptr, ptr %.sroa.2.0..sroa_idx.i, align 8, !tbaa !44
  %8 = getelementptr inbounds nuw i8, ptr %6, i64 32
  %9 = load i32, ptr %8, align 8, !tbaa !90
  %10 = tail call noundef zeroext i1 @_ZN4absl12log_internal20ShouldLogBacktraceAtESt17basic_string_viewIcSt11char_traitsIcEEi(i64 %.sroa.0.0.copyload.i, ptr %.sroa.2.0.copyload.i, i32 noundef %9)
  br i1 %10, label %11, label %27

11:                                               ; preds = %4
  call void @llvm.lifetime.start.p0(i64 120, ptr nonnull %2) #28
  %12 = load ptr, ptr %5, align 8, !tbaa !4
  call void @_ZN4absl12log_internal10LogMessage11OstreamViewC2ERNS1_14LogMessageDataE(ptr noundef nonnull align 8 dereferenceable(120) %2, ptr noundef nonnull align 8 dereferenceable(30576) %12)
  %13 = getelementptr inbounds nuw i8, ptr %2, i64 64
  %14 = load ptr, ptr %13, align 8, !tbaa !9
  %15 = getelementptr inbounds nuw i8, ptr %14, i64 288
  %16 = invoke noundef nonnull align 8 dereferenceable(8) ptr @_ZSt16__ostream_insertIcSt11char_traitsIcEERSt13basic_ostreamIT_T0_ES6_PKS3_l(ptr noundef nonnull align 8 dereferenceable(8) %15, ptr noundef nonnull @.str.7, i64 noundef 14)
          to label %_ZStlsISt11char_traitsIcEERSt13basic_ostreamIcT_ES5_PKc.exit unwind label %28

_ZStlsISt11char_traitsIcEERSt13basic_ostreamIcT_ES5_PKc.exit: ; preds = %11
  %17 = invoke noundef i32 @_ZN4absl12log_internal24MaxFramesInLogStackTraceEv()
          to label %18 unwind label %28

18:                                               ; preds = %_ZStlsISt11char_traitsIcEERSt13basic_ostreamIcT_ES5_PKc.exit
  %19 = invoke noundef zeroext i1 @_ZN4absl12log_internal28ShouldSymbolizeLogStackTraceEv()
          to label %20 unwind label %28

20:                                               ; preds = %18
  %21 = load ptr, ptr %13, align 8, !tbaa !9
  %22 = getelementptr inbounds nuw i8, ptr %21, i64 288
  invoke void @_ZN4absl18debugging_internal14DumpStackTraceEiibPFvPKcPvES3_(i32 noundef 1, i32 noundef %17, i1 noundef zeroext %19, ptr noundef nonnull @_ZN4absl12log_internal12_GLOBAL__N_113WriteToStreamEPKcPv, ptr noundef nonnull %22)
          to label %23 unwind label %28

23:                                               ; preds = %20
  %24 = load ptr, ptr %13, align 8, !tbaa !9
  %25 = getelementptr inbounds nuw i8, ptr %24, i64 288
  %26 = invoke noundef nonnull align 8 dereferenceable(8) ptr @_ZSt16__ostream_insertIcSt11char_traitsIcEERSt13basic_ostreamIT_T0_ES6_PKS3_l(ptr noundef nonnull align 8 dereferenceable(8) %25, ptr noundef nonnull @.str.8, i64 noundef 2)
          to label %_ZStlsISt11char_traitsIcEERSt13basic_ostreamIcT_ES5_PKc.exit2 unwind label %28

_ZStlsISt11char_traitsIcEERSt13basic_ostreamIcT_ES5_PKc.exit2: ; preds = %23
  call void @_ZN4absl12log_internal10LogMessage11OstreamViewD2Ev(ptr noundef nonnull align 8 dereferenceable(120) %2) #28
  call void @llvm.lifetime.end.p0(i64 120, ptr nonnull %2) #28
  br label %27

27:                                               ; preds = %4, %1, %_ZStlsISt11char_traitsIcEERSt13basic_ostreamIcT_ES5_PKc.exit2
  ret void

28:                                               ; preds = %23, %11, %20, %18, %_ZStlsISt11char_traitsIcEERSt13basic_ostreamIcT_ES5_PKc.exit
  %29 = landingpad { ptr, i32 }
          cleanup
  call void @_ZN4absl12log_internal10LogMessage11OstreamViewD2Ev(ptr noundef nonnull align 8 dereferenceable(120) %2) #28
  call void @llvm.lifetime.end.p0(i64 120, ptr nonnull %2) #28
  resume { ptr, i32 } %29
}